target datalayout = "e-m:e-p270:32:32-p271:32:32-p272:64:64-i64:64-i128:128-f80:128-n8:16:32:64-S128"
target triple = "x86_64-pc-linux-gnu"

%struct.lua_State = type { i8, i8, i8, i8, i8, i8, i8, ptr, ptr, ptr, ptr, ptr, ptr, ptr, ptr, i32, i32, i16, i16, i32, ptr, ptr, ptr, ptr, ptr }
%struct.CallInfo = type { ptr, ptr, ptr, ptr, i32, i32 }
%struct.Proto = type { i8, i8, i8, i8, i8, i8, i8, i8, ptr, ptr, ptr, ptr, ptr, i64, ptr, ptr, ptr, ptr, ptr, ptr, ptr, ptr, ptr, ptr, i32, i32, i32, i32, i32, i32, i32, i32, i32, i32 }
%struct.GCheader = type { i8, i8, i8 }
%struct.lua_TValue = type { %union.Value, [1 x i32], i32 }
%union.Value = type { ptr }
%struct.Closure = type { i8, i8, i8, i8, i8, i8, i8, ptr, ptr, %union.anon.0 }
%union.anon.0 = type { %struct.anon }
%struct.anon = type { ptr, ptr, ptr, [1 x %struct.lua_TValue] }
%struct.anon.1 = type { ptr, [1 x %struct.lua_TValue] }
%struct.LocVar = type { ptr, i32, i32, i8 }
%struct.TString = type { i8, i8, i8, i16, ptr, i32, i32, [1 x i8] }

; Function Attrs: mustprogress nounwind uwtable
define internal noundef i32 @_ZL9currentpcP9lua_StateP8CallInfo(ptr noundef %0, ptr noundef %1) #2 {
  %3 = alloca ptr, align 8
  %4 = alloca ptr, align 8
  store ptr %0, ptr %3, align 8, !tbaa !4
  store ptr %1, ptr %4, align 8, !tbaa !23
  %5 = load ptr, ptr %4, align 8, !tbaa !23
  %6 = getelementptr inbounds nuw %struct.CallInfo, ptr %5, i32 0, i32 3
  %7 = load ptr, ptr %6, align 8, !tbaa !50
  %8 = icmp ne ptr %7, null
  br i1 %8, label %9, label %29

9:                                                ; preds = %2
  %10 = load ptr, ptr %4, align 8, !tbaa !23
  %11 = getelementptr inbounds nuw %struct.CallInfo, ptr %10, i32 0, i32 3
  %12 = load ptr, ptr %11, align 8, !tbaa !50
  %13 = load ptr, ptr %4, align 8, !tbaa !23
  %14 = getelementptr inbounds nuw %struct.CallInfo, ptr %13, i32 0, i32 1
  %15 = load ptr, ptr %14, align 8, !tbaa !40
  %16 = getelementptr inbounds nuw %struct.lua_TValue, ptr %15, i32 0, i32 0
  %17 = load ptr, ptr %16, align 8, !tbaa !37
  %18 = getelementptr inbounds nuw %struct.Closure, ptr %17, i32 0, i32 9
  %19 = getelementptr inbounds nuw %struct.anon.1, ptr %18, i32 0, i32 0
  %20 = load ptr, ptr %19, align 8, !tbaa !37
  %21 = getelementptr inbounds nuw %struct.Proto, ptr %20, i32 0, i32 9
  %22 = load ptr, ptr %21, align 8, !tbaa !51
  %23 = ptrtoint ptr %12 to i64
  %24 = ptrtoint ptr %22 to i64
  %25 = sub i64 %23, %24
  %26 = sdiv exact i64 %25, 4
  %27 = trunc i64 %26 to i32
  %28 = sub nsw i32 %27, 1
  br label %30

29:                                               ; preds = %2
  br label %30

30:                                               ; preds = %29, %9
  %31 = phi i32 [ %28, %9 ], [ 0, %29 ]
  ret i32 %31
}

; Function Attrs: mustprogress nounwind uwtable
define internal noundef ptr @_ZL11getluaprotoP8CallInfo(ptr noundef %0) #2 {
  %2 = alloca ptr, align 8
  store ptr %0, ptr %2, align 8, !tbaa !23
  %3 = load ptr, ptr %2, align 8, !tbaa !23
  %4 = getelementptr inbounds nuw %struct.CallInfo, ptr %3, i32 0, i32 1
  %5 = load ptr, ptr %4, align 8, !tbaa !40
  %6 = getelementptr inbounds nuw %struct.lua_TValue, ptr %5, i32 0, i32 2
  %7 = load i32, ptr %6, align 4, !tbaa !41
  %8 = icmp eq i32 %7, 7
  br i1 %8, label %9, label %27

9:                                                ; preds = %1
  %10 = load ptr, ptr %2, align 8, !tbaa !23
  %11 = getelementptr inbounds nuw %struct.CallInfo, ptr %10, i32 0, i32 1
  %12 = load ptr, ptr %11, align 8, !tbaa !40
  %13 = getelementptr inbounds nuw %struct.lua_TValue, ptr %12, i32 0, i32 0
  %14 = load ptr, ptr %13, align 8, !tbaa !37
  %15 = getelementptr inbounds nuw %struct.Closure, ptr %14, i32 0, i32 3
  %16 = load i8, ptr %15, align 1, !tbaa !43
  %17 = icmp ne i8 %16, 0
  br i1 %17, label %27, label %18

18:                                               ; preds = %9
  %19 = load ptr, ptr %2, align 8, !tbaa !23
  %20 = getelementptr inbounds nuw %struct.CallInfo, ptr %19, i32 0, i32 1
  %21 = load ptr, ptr %20, align 8, !tbaa !40
  %22 = getelementptr inbounds nuw %struct.lua_TValue, ptr %21, i32 0, i32 0
  %23 = load ptr, ptr %22, align 8, !tbaa !37
  %24 = getelementptr inbounds nuw %struct.Closure, ptr %23, i32 0, i32 9
  %25 = getelementptr inbounds nuw %struct.anon.1, ptr %24, i32 0, i32 0
  %26 = load ptr, ptr %25, align 8, !tbaa !37
  br label %28

27:                                               ; preds = %9, %1
  br label %28

28:                                               ; preds = %27, %18
  %29 = phi ptr [ %26, %18 ], [ null, %27 ]
  ret ptr %29
}

; Function Attrs: mustprogress uwtable
define dso_local noundef ptr @_Z12lua_getlocalP9lua_Stateii(ptr noundef %0, i32 noundef %1, i32 noundef %2) #0 {
  %4 = alloca ptr, align 8
  %5 = alloca ptr, align 8
  %6 = alloca i32, align 4
  %7 = alloca i32, align 4
  %8 = alloca ptr, align 8
  %9 = alloca i32, align 4
  %10 = alloca ptr, align 8
  %11 = alloca ptr, align 8
  %12 = alloca ptr, align 8
  store ptr %0, ptr %5, align 8, !tbaa !4
  store i32 %1, ptr %6, align 4, !tbaa !9
  store i32 %2, ptr %7, align 4, !tbaa !9
  %13 = load i32, ptr %6, align 4, !tbaa !9
  %14 = load ptr, ptr %5, align 8, !tbaa !4
  %15 = getelementptr inbounds nuw %struct.lua_State, ptr %14, i32 0, i32 10
  %16 = load ptr, ptr %15, align 8, !tbaa !11
  %17 = load ptr, ptr %5, align 8, !tbaa !4
  %18 = getelementptr inbounds nuw %struct.lua_State, ptr %17, i32 0, i32 14
  %19 = load ptr, ptr %18, align 8, !tbaa !22
  %20 = ptrtoint ptr %16 to i64
  %21 = ptrtoint ptr %19 to i64
  %22 = sub i64 %20, %21
  %23 = sdiv exact i64 %22, 40
  %24 = trunc i64 %23 to i32
  %25 = icmp uge i32 %13, %24
  br i1 %25, label %26, label %27

26:                                               ; preds = %3
  store ptr null, ptr %4, align 8
  br label %97

27:                                               ; preds = %3
  call void @llvm.lifetime.start.p0(i64 8, ptr %8) #11
  %28 = load ptr, ptr %5, align 8, !tbaa !4
  %29 = getelementptr inbounds nuw %struct.lua_State, ptr %28, i32 0, i32 10
  %30 = load ptr, ptr %29, align 8, !tbaa !11
  %31 = load i32, ptr %6, align 4, !tbaa !9
  %32 = sext i32 %31 to i64
  %33 = sub i64 0, %32
  %34 = getelementptr inbounds %struct.CallInfo, ptr %30, i64 %33
  store ptr %34, ptr %8, align 8, !tbaa !23
  %35 = load ptr, ptr %8, align 8, !tbaa !23
  %36 = getelementptr inbounds nuw %struct.CallInfo, ptr %35, i32 0, i32 5
  %37 = load i32, ptr %36, align 4, !tbaa !24
  %38 = and i32 %37, 4
  %39 = icmp ne i32 %38, 0
  br i1 %39, label %40, label %41

40:                                               ; preds = %27
  store ptr null, ptr %4, align 8
  store i32 1, ptr %9, align 4
  br label %96

41:                                               ; preds = %27
  call void @llvm.lifetime.start.p0(i64 8, ptr %10) #11
  %42 = load ptr, ptr %8, align 8, !tbaa !23
  %43 = call noundef ptr @_ZL11getluaprotoP8CallInfo(ptr noundef %42)
  store ptr %43, ptr %10, align 8, !tbaa !27
  call void @llvm.lifetime.start.p0(i64 8, ptr %11) #11
  %44 = load ptr, ptr %10, align 8, !tbaa !27
  %45 = icmp ne ptr %44, null
  br i1 %45, label %46, label %53

46:                                               ; preds = %41
  %47 = load ptr, ptr %10, align 8, !tbaa !27
  %48 = load i32, ptr %7, align 4, !tbaa !9
  %49 = load ptr, ptr %5, align 8, !tbaa !4
  %50 = load ptr, ptr %8, align 8, !tbaa !23
  %51 = call noundef i32 @_ZL9currentpcP9lua_StateP8CallInfo(ptr noundef %49, ptr noundef %50)
  %52 = call noundef ptr @_Z13luaF_getlocalPK5Protoii(ptr noundef %47, i32 noundef %48, i32 noundef %51)
  br label %54

53:                                               ; preds = %41
  br label %54

54:                                               ; preds = %53, %46
  %55 = phi ptr [ %52, %46 ], [ null, %53 ]
  store ptr %55, ptr %11, align 8, !tbaa !45
  %56 = load ptr, ptr %11, align 8, !tbaa !45
  %57 = icmp ne ptr %56, null
  br i1 %57, label %58, label %83

58:                                               ; preds = %54
  %59 = load ptr, ptr %5, align 8, !tbaa !4
  %60 = getelementptr inbounds %struct.lua_State, ptr %59, i64 0
  %61 = getelementptr inbounds nuw %struct.GCheader, ptr %60, i32 0, i32 1
  %62 = load i8, ptr %61, align 1, !tbaa !37
  %63 = zext i8 %62 to i32
  %64 = and i32 %63, 4
  %65 = icmp ne i32 %64, 0
  br i1 %65, label %66, label %72

66:                                               ; preds = %58
  %67 = load ptr, ptr %5, align 8, !tbaa !4
  %68 = load ptr, ptr %5, align 8, !tbaa !4
  %69 = getelementptr inbounds %struct.lua_State, ptr %68, i64 0
  %70 = load ptr, ptr %5, align 8, !tbaa !4
  %71 = getelementptr inbounds nuw %struct.lua_State, ptr %70, i32 0, i32 22
  call void @_Z16luaC_barrierbackP9lua_StateP8GCObjectPS2_(ptr noundef %67, ptr noundef %69, ptr noundef %71)
  br label %72

72:                                               ; preds = %66, %58
  %73 = load ptr, ptr %5, align 8, !tbaa !4
  %74 = load ptr, ptr %8, align 8, !tbaa !23
  %75 = getelementptr inbounds nuw %struct.CallInfo, ptr %74, i32 0, i32 0
  %76 = load ptr, ptr %75, align 8, !tbaa !38
  %77 = load ptr, ptr %11, align 8, !tbaa !45
  %78 = getelementptr inbounds nuw %struct.LocVar, ptr %77, i32 0, i32 3
  %79 = load i8, ptr %78, align 8, !tbaa !46
  %80 = zext i8 %79 to i32
  %81 = sext i32 %80 to i64
  %82 = getelementptr inbounds %struct.lua_TValue, ptr %76, i64 %81
  call void @_Z15luaA_pushobjectP9lua_StatePK10lua_TValue(ptr noundef %73, ptr noundef %82)
  br label %83

83:                                               ; preds = %72, %54
  call void @llvm.lifetime.start.p0(i64 8, ptr %12) #11
  %84 = load ptr, ptr %11, align 8, !tbaa !45
  %85 = icmp ne ptr %84, null
  br i1 %85, label %86, label %92

86:                                               ; preds = %83
  %87 = load ptr, ptr %11, align 8, !tbaa !45
  %88 = getelementptr inbounds nuw %struct.LocVar, ptr %87, i32 0, i32 0
  %89 = load ptr, ptr %88, align 8, !tbaa !48
  %90 = getelementptr inbounds nuw %struct.TString, ptr %89, i32 0, i32 7
  %91 = getelementptr inbounds [1 x i8], ptr %90, i64 0, i64 0
  br label %93

92:                                               ; preds = %83
  br label %93

93:                                               ; preds = %92, %86
  %94 = phi ptr [ %91, %86 ], [ null, %92 ]
  store ptr %94, ptr %12, align 8, !tbaa !49
  %95 = load ptr, ptr %12, align 8, !tbaa !49
  store ptr %95, ptr %4, align 8
  store i32 1, ptr %9, align 4
  call void @llvm.lifetime.end.p0(i64 8, ptr %12) #11
  call void @llvm.lifetime.end.p0(i64 8, ptr %11) #11
  call void @llvm.lifetime.end.p0(i64 8, ptr %10) #11
  br label %96

96:                                               ; preds = %93, %40
  call void @llvm.lifetime.end.p0(i64 8, ptr %8) #11
  br label %97

97:                                               ; preds = %96, %26
  %98 = load ptr, ptr %4, align 8
  ret ptr %98
}