; Function Attrs: mustprogress uwtable
define dso_local noundef ptr @_Z12lua_getlocalP9lua_Stateii(ptr noundef %0, i32 noundef %1, i32 noundef %2) local_unnamed_addr #0 {
  %4 = getelementptr inbounds nuw i8, ptr %0, i64 32
  %5 = load ptr, ptr %4, align 8, !tbaa !4
  %6 = getelementptr inbounds nuw i8, ptr %0, i64 64
  %7 = load ptr, ptr %6, align 8, !tbaa !19
  %8 = ptrtoint ptr %5 to i64
  %9 = ptrtoint ptr %7 to i64
  %10 = sub i64 %8, %9
  %11 = sdiv exact i64 %10, 40
  %12 = trunc i64 %11 to i32
  %.not = icmp ult i32 %1, %12
  br i1 %.not, label %13, label %.critedge

13:                                               ; preds = %3
  %14 = sext i32 %1 to i64
  %15 = sub nsw i64 0, %14
  %16 = getelementptr inbounds %struct.CallInfo, ptr %5, i64 %15
  %17 = getelementptr inbounds nuw i8, ptr %16, i64 36
  %18 = load i32, ptr %17, align 4, !tbaa !20
  %19 = and i32 %18, 4
  %.not27 = icmp eq i32 %19, 0
  br i1 %.not27, label %20, label %.critedge

20:                                               ; preds = %13
  %21 = getelementptr i8, ptr %16, i64 8
  %.val = load ptr, ptr %21, align 8, !tbaa !23
  %22 = getelementptr inbounds nuw i8, ptr %.val, i64 12
  %23 = load i32, ptr %22, align 4, !tbaa !24
  %24 = icmp eq i32 %23, 7
  br i1 %24, label %25, label %.critedge

25:                                               ; preds = %20
  %26 = load ptr, ptr %.val, align 8, !tbaa !26
  %27 = getelementptr inbounds nuw i8, ptr %26, i64 3
  %28 = load i8, ptr %27, align 1, !tbaa !27
  %.not.i = icmp eq i8 %28, 0
  br i1 %.not.i, label %_ZL11getluaprotoP8CallInfo.exit, label %.critedge

_ZL11getluaprotoP8CallInfo.exit:                  ; preds = %25
  %29 = getelementptr inbounds nuw i8, ptr %26, i64 24
  %30 = load ptr, ptr %29, align 8, !tbaa !26
  %.not28 = icmp eq ptr %30, null
  br i1 %.not28, label %.critedge, label %31

31:                                               ; preds = %_ZL11getluaprotoP8CallInfo.exit
  %32 = getelementptr inbounds nuw i8, ptr %16, i64 24
  %33 = load ptr, ptr %32, align 8, !tbaa !39
  %.not.i31 = icmp eq ptr %33, null
  br i1 %.not.i31, label %43, label %34

34:                                               ; preds = %31
  %35 = getelementptr inbounds nuw i8, ptr %30, i64 16
  %36 = load ptr, ptr %35, align 8, !tbaa !40
  %37 = ptrtoint ptr %33 to i64
  %38 = ptrtoint ptr %36 to i64
  %39 = sub i64 %37, %38
  %40 = lshr exact i64 %39, 2
  %41 = trunc i64 %40 to i32
  %42 = add nsw i32 %41, -1
  br label %43

43:                                               ; preds = %34, %31
  %44 = phi i32 [ %42, %34 ], [ 0, %31 ]
  %45 = tail call noundef ptr @_Z13luaF_getlocalPK5Protoii(ptr noundef nonnull %30, i32 noundef %2, i32 noundef %44)
  %.not29 = icmp eq ptr %45, null
  br i1 %.not29, label %.critedge, label %46

46:                                               ; preds = %43
  %47 = getelementptr inbounds nuw i8, ptr %0, i64 1
  %48 = load i8, ptr %47, align 1, !tbaa !26
  %49 = and i8 %48, 4
  %.not30 = icmp eq i8 %49, 0
  br i1 %.not30, label %52, label %50

50:                                               ; preds = %46
  %51 = getelementptr inbounds nuw i8, ptr %0, i64 104
  tail call void @_Z16luaC_barrierbackP9lua_StateP8GCObjectPS2_(ptr noundef nonnull %0, ptr noundef nonnull %0, ptr noundef nonnull %51)
  br label %52

52:                                               ; preds = %46, %50
  %53 = load ptr, ptr %16, align 8, !tbaa !37
  %54 = getelementptr inbounds nuw i8, ptr %45, i64 16
  %55 = load i8, ptr %54, align 8, !tbaa !41
  %56 = zext i8 %55 to i64
  %57 = getelementptr inbounds nuw %struct.lua_TValue, ptr %53, i64 %56
  tail call void @_Z15luaA_pushobjectP9lua_StatePK10lua_TValue(ptr noundef nonnull %0, ptr noundef %57)
  %58 = load ptr, ptr %45, align 8, !tbaa !43
  %59 = getelementptr inbounds nuw i8, ptr %58, i64 24
  br label %.critedge

.critedge:                                        ; preds = %20, %25, %_ZL11getluaprotoP8CallInfo.exit, %13, %43, %52, %3
  %.0 = phi ptr [ null, %3 ], [ null, %13 ], [ %59, %52 ], [ null, %43 ], [ null, %_ZL11getluaprotoP8CallInfo.exit ], [ null, %25 ], [ null, %20 ]
  ret ptr %.0
}